target datalayout = "e-m:e-p270:32:32-p271:32:32-p272:64:64-i64:64-i128:128-f80:128-n8:16:32:64-S128"
target triple = "x86_64-pc-linux-gnu"

%struct.pmix_lock_t = type { i32, %struct.pmix_mutex_t, %union.pthread_cond_t, i8 }
%struct.pmix_mutex_t = type { %struct.pmix_object_t, %union.pthread_mutex_t }
%struct.pmix_object_t = type { %union.pthread_mutex_t, ptr, i32, %struct.pmix_tma }
%struct.pmix_tma = type { ptr, ptr, ptr, ptr, ptr, ptr, ptr, ptr }
%union.pthread_mutex_t = type { %struct.__pthread_mutex_s }
%struct.__pthread_mutex_s = type { i32, i32, i32, i32, i32, i16, i16, %struct.__pthread_internal_list }
%struct.__pthread_internal_list = type { ptr, ptr }
%union.pthread_cond_t = type { %struct.__pthread_cond_s }
%struct.__pthread_cond_s = type { %union.__atomic_wide_counter, %union.__atomic_wide_counter, [2 x i32], [2 x i32], i32, i32, [2 x i32] }
%union.__atomic_wide_counter = type { i64 }
%struct.pmix_globals_t = type { i32, %struct.pmix_proc, %struct.pmix_value, %struct.pmix_value, ptr, i32, i32, ptr, i32, i32, i32, i32, i32, ptr, ptr, i32, %struct.pmix_events_t, i8, i8, %struct.timeval, %struct.pmix_list_t, %struct.pmix_pointer_array_t, i32, i32, %struct.pmix_hotel_t, i8, %struct.pmix_list_t, i8, i8, i8, i64, %struct.pmix_list_t, %struct.pmix_topology_t, %struct.pmix_cpuset_t, i8, i8, %struct.pmix_iof_flags_t, %struct.pmix_keyindex_t }
%struct.pmix_proc = type { [256 x i8], i32 }
%struct.pmix_value = type { i16, %union.anon }
%union.anon = type { %struct.pmix_envar_t }
%struct.pmix_envar_t = type { ptr, ptr, i8 }
%struct.pmix_events_t = type { %struct.pmix_object_t, i64, ptr, ptr, %struct.pmix_list_t, %struct.pmix_list_t, %struct.pmix_list_t, %struct.pmix_list_t }
%struct.timeval = type { i64, i64 }
%struct.pmix_pointer_array_t = type { %struct.pmix_object_t, i32, i32, i32, i32, i32, ptr, ptr }
%struct.pmix_hotel_t = type { %struct.pmix_object_t, i32, ptr, %struct.timeval, ptr, ptr, ptr, ptr, i32 }
%struct.pmix_list_t = type { %struct.pmix_object_t, %struct.pmix_list_item_t, i64 }
%struct.pmix_list_item_t = type { %struct.pmix_object_t, ptr, ptr, i32 }
%struct.pmix_topology_t = type { ptr, ptr }
%struct.pmix_cpuset_t = type { ptr, ptr }
%struct.pmix_iof_flags_t = type { i8, i8, i8, i8, i8, i8, i8, ptr, ptr, i8, i8, i8, i8, i8, i8 }
%struct.pmix_keyindex_t = type { %struct.pmix_object_t, ptr, i32 }
%struct.event = type { %struct.event_callback, %union.anon.1, i32, ptr, %union.anon.3, i16, i16, %struct.timeval }
%struct.event_callback = type { %struct.anon, i16, i8, i8, %union.anon.0, ptr }
%struct.anon = type { ptr, ptr }
%union.anon.0 = type { ptr }
%union.anon.1 = type { %struct.anon.2 }
%struct.anon.2 = type { ptr, ptr }
%union.anon.3 = type { %struct.anon.4 }
%struct.anon.4 = type { %struct.anon.5, %struct.timeval }
%struct.anon.5 = type { ptr, ptr }
%struct.pmix_output_desc_t = type { i8, i8, i32, i8, i32, ptr, ptr, i32, ptr, i32, i8, i8, i8, i8, ptr, i32, i32 }
%struct.pmix_tool_timeout_t = type { %struct.pmix_lock_t, %struct.event, i8 }

@pmix_globals = external global %struct.pmix_globals_t, align 8
@pmix_output_info = external global [0 x %struct.pmix_output_desc_t], align 8
@.str.89 = private unnamed_addr constant [34 x i8] c"pmix:tool finwait_cbfunc received\00", align 1

; Function Attrs: inlinehint nounwind uwtable
define internal void @pmix_mutex_unlock(ptr noundef %0) #3 {
  %2 = alloca ptr, align 8
  store ptr %0, ptr %2, align 8, !tbaa !173
  %3 = load ptr, ptr %2, align 8, !tbaa !173
  %4 = getelementptr inbounds nuw %struct.pmix_mutex_t, ptr %3, i32 0, i32 1
  %5 = call i32 @pthread_mutex_unlock(ptr noundef %4) #13
  ret void
}

; Function Attrs: inlinehint nounwind uwtable
define internal void @pmix_atomic_wmb() #3 {
  fence release
  ret void
}

; Function Attrs: inlinehint nounwind uwtable
define internal void @pmix_mutex_lock(ptr noundef %0) #3 {
  %2 = alloca ptr, align 8
  store ptr %0, ptr %2, align 8, !tbaa !173
  %3 = load ptr, ptr %2, align 8, !tbaa !173
  %4 = getelementptr inbounds nuw %struct.pmix_mutex_t, ptr %3, i32 0, i32 1
  %5 = call i32 @pthread_mutex_lock(ptr noundef %4) #13
  ret void
}

; Function Attrs: nounwind uwtable
define internal void @finwait_cbfunc(ptr noundef %0, ptr noundef %1, ptr noundef %2, ptr noundef %3) #0 {
  %5 = alloca ptr, align 8
  %6 = alloca ptr, align 8
  %7 = alloca ptr, align 8
  %8 = alloca ptr, align 8
  %9 = alloca ptr, align 8
  store ptr %0, ptr %5, align 8, !tbaa !148
  store ptr %1, ptr %6, align 8, !tbaa !60
  store ptr %2, ptr %7, align 8, !tbaa !60
  store ptr %3, ptr %8, align 8, !tbaa !60
  call void @llvm.lifetime.start.p0(i64 8, ptr %9) #13
  %10 = load ptr, ptr %8, align 8, !tbaa !60
  store ptr %10, ptr %9, align 8, !tbaa !60
  %11 = load i32, ptr getelementptr inbounds nuw (%struct.pmix_globals_t, ptr @pmix_globals, i32 0, i32 15), align 8, !tbaa !87
  %12 = icmp sge i32 %11, 0
  br i1 %12, label %13, label %25

13:                                               ; preds = %4
  %14 = load i32, ptr getelementptr inbounds nuw (%struct.pmix_globals_t, ptr @pmix_globals, i32 0, i32 15), align 8, !tbaa !87
  %15 = icmp slt i32 %14, 64
  br i1 %15, label %16, label %25

16:                                               ; preds = %13
  %17 = load i32, ptr getelementptr inbounds nuw (%struct.pmix_globals_t, ptr @pmix_globals, i32 0, i32 15), align 8, !tbaa !87
  %18 = sext i32 %17 to i64
  %19 = getelementptr inbounds [0 x %struct.pmix_output_desc_t], ptr @pmix_output_info, i64 0, i64 %18
  %20 = getelementptr inbounds nuw %struct.pmix_output_desc_t, ptr %19, i32 0, i32 2
  %21 = load i32, ptr %20, align 4, !tbaa !88
  %22 = icmp sge i32 %21, 2
  br i1 %22, label %23, label %25

23:                                               ; preds = %16
  %24 = load i32, ptr getelementptr inbounds nuw (%struct.pmix_globals_t, ptr @pmix_globals, i32 0, i32 15), align 8, !tbaa !87
  call void (i32, ptr, ...) @pmix_output(i32 noundef %24, ptr noundef @.str.89)
  br label %25

25:                                               ; preds = %23, %16, %13, %4
  %26 = load ptr, ptr %9, align 8, !tbaa !60
  %27 = getelementptr inbounds nuw %struct.pmix_tool_timeout_t, ptr %26, i32 0, i32 2
  %28 = load i8, ptr %27, align 8, !tbaa !237, !range !24, !noundef !25
  %29 = trunc i8 %28 to i1
  br i1 %29, label %30, label %36

30:                                               ; preds = %25
  %31 = load ptr, ptr %9, align 8, !tbaa !60
  %32 = getelementptr inbounds nuw %struct.pmix_tool_timeout_t, ptr %31, i32 0, i32 2
  store i8 0, ptr %32, align 8, !tbaa !237
  %33 = load ptr, ptr %9, align 8, !tbaa !60
  %34 = getelementptr inbounds nuw %struct.pmix_tool_timeout_t, ptr %33, i32 0, i32 1
  %35 = call i32 @event_del(ptr noundef %34)
  br label %36

36:                                               ; preds = %30, %25
  br label %37

37:                                               ; preds = %36
  %38 = load ptr, ptr %9, align 8, !tbaa !60
  %39 = getelementptr inbounds nuw %struct.pmix_tool_timeout_t, ptr %38, i32 0, i32 0
  %40 = getelementptr inbounds nuw %struct.pmix_lock_t, ptr %39, i32 0, i32 1
  call void @pmix_mutex_lock(ptr noundef %40)
  %41 = load ptr, ptr %9, align 8, !tbaa !60
  %42 = getelementptr inbounds nuw %struct.pmix_tool_timeout_t, ptr %41, i32 0, i32 0
  %43 = getelementptr inbounds nuw %struct.pmix_lock_t, ptr %42, i32 0, i32 3
  store volatile i8 0, ptr %43, align 8, !tbaa !235
  call void @pmix_atomic_wmb()
  %44 = load ptr, ptr %9, align 8, !tbaa !60
  %45 = getelementptr inbounds nuw %struct.pmix_tool_timeout_t, ptr %44, i32 0, i32 0
  %46 = getelementptr inbounds nuw %struct.pmix_lock_t, ptr %45, i32 0, i32 2
  %47 = call i32 @pthread_cond_broadcast(ptr noundef %46) #13
  %48 = load ptr, ptr %9, align 8, !tbaa !60
  %49 = getelementptr inbounds nuw %struct.pmix_tool_timeout_t, ptr %48, i32 0, i32 0
  %50 = getelementptr inbounds nuw %struct.pmix_lock_t, ptr %49, i32 0, i32 1
  call void @pmix_mutex_unlock(ptr noundef %50)
  br label %51

51:                                               ; preds = %37
  br label %52

52:                                               ; preds = %51
  call void @llvm.lifetime.end.p0(i64 8, ptr %9) #13
  ret void
}