; Function Attrs: nounwind uwtable
define internal void @finwait_cbfunc(ptr readnone captures(none) %0, ptr readnone captures(none) %1, ptr readnone captures(none) %2, ptr noundef %3) #0 {
  %5 = load i32, ptr getelementptr inbounds nuw (i8, ptr @pmix_globals, i64 392), align 8, !tbaa !85
  %or.cond = icmp ult i32 %5, 64
  br i1 %or.cond, label %6, label %12

6:                                                ; preds = %4
  %7 = zext nneg i32 %5 to i64
  %8 = getelementptr inbounds nuw [0 x %struct.pmix_output_desc_t], ptr @pmix_output_info, i64 0, i64 %7, i32 2
  %9 = load i32, ptr %8, align 4, !tbaa !86
  %10 = icmp sgt i32 %9, 1
  br i1 %10, label %11, label %12

11:                                               ; preds = %6
  tail call void (i32, ptr, ...) @pmix_output(i32 noundef %5, ptr noundef nonnull @.str.89) #19
  br label %12

12:                                               ; preds = %11, %6, %4
  %13 = getelementptr inbounds nuw i8, ptr %3, i64 352
  %14 = load i8, ptr %13, align 8, !tbaa !209, !range !14, !noundef !15
  %15 = trunc nuw i8 %14 to i1
  br i1 %15, label %16, label %19

16:                                               ; preds = %12
  store i8 0, ptr %13, align 8, !tbaa !209
  %17 = getelementptr inbounds nuw i8, ptr %3, i64 224
  %18 = tail call i32 @event_del(ptr noundef nonnull %17) #19
  br label %19

19:                                               ; preds = %12, %16
  %20 = getelementptr inbounds nuw i8, ptr %3, i64 128
  %21 = tail call i32 @pthread_mutex_lock(ptr noundef nonnull %20) #19
  %22 = getelementptr inbounds nuw i8, ptr %3, i64 216
  store volatile i8 0, ptr %22, align 8, !tbaa !207
  fence release
  %23 = getelementptr inbounds nuw i8, ptr %3, i64 168
  %24 = tail call i32 @pthread_cond_broadcast(ptr noundef nonnull %23) #19
  %25 = tail call i32 @pthread_mutex_unlock(ptr noundef nonnull %20) #19
  ret void
}